; Function Attrs: mustprogress nounwind uwtable
define internal fastcc void @_ZN12_GLOBAL__N_112StmtProfiler13VisitDeclStmtEPKN5clang8DeclStmtE(ptr noundef nonnull align 8 dereferenceable(18) %0, ptr noundef %1) unnamed_addr #0 align 2 {
  tail call fastcc void @_ZN12_GLOBAL__N_112StmtProfiler9VisitStmtEPKN5clang4StmtE(ptr noundef nonnull align 8 dereferenceable(18) %0, ptr noundef %1)
  %3 = getelementptr inbounds nuw i8, ptr %1, i64 8
  %4 = load ptr, ptr %3, align 8
  %5 = ptrtoint ptr %4 to i64
  %6 = and i64 %5, 1
  %7 = icmp eq i64 %6, 0
  br i1 %7, label %8, label %12

8:                                                ; preds = %2
  %.not.i.i.i = icmp eq ptr %4, null
  %9 = select i1 %.not.i.i.i, ptr null, ptr %3
  %10 = getelementptr inbounds nuw i8, ptr %1, i64 16
  %11 = select i1 %.not.i.i.i, ptr null, ptr %10
  br label %_ZNK5clang8DeclStmt5declsEv.exit

12:                                               ; preds = %2
  %13 = and i64 %5, -2
  %14 = inttoptr i64 %13 to ptr
  %15 = getelementptr inbounds nuw i8, ptr %14, i64 8
  %16 = load i32, ptr %14, align 8
  %17 = zext i32 %16 to i64
  %18 = getelementptr inbounds nuw ptr, ptr %15, i64 %17
  br label %_ZNK5clang8DeclStmt5declsEv.exit

_ZNK5clang8DeclStmt5declsEv.exit:                 ; preds = %8, %12
  %.0.i.i.i = phi ptr [ %9, %8 ], [ %15, %12 ]
  %.0.i.i1.i = phi ptr [ %11, %8 ], [ %18, %12 ]
  %.not10 = icmp eq ptr %.0.i.i.i, %.0.i.i1.i
  br i1 %.not10, label %._crit_edge, label %.lr.ph

.lr.ph:                                           ; preds = %_ZNK5clang8DeclStmt5declsEv.exit, %.lr.ph
  %.011 = phi ptr [ %23, %.lr.ph ], [ %.0.i.i.i, %_ZNK5clang8DeclStmt5declsEv.exit ]
  %19 = load ptr, ptr %.011, align 8
  %20 = load ptr, ptr %0, align 8
  %21 = getelementptr inbounds nuw i8, ptr %20, i64 24
  %22 = load ptr, ptr %21, align 8
  tail call void %22(ptr noundef nonnull align 8 dereferenceable(18) %0, ptr noundef %19) #11
  %23 = getelementptr inbounds nuw i8, ptr %.011, i64 8
  %.not = icmp eq ptr %23, %.0.i.i1.i
  br i1 %.not, label %._crit_edge, label %.lr.ph

._crit_edge:                                      ; preds = %.lr.ph, %_ZNK5clang8DeclStmt5declsEv.exit
  ret void
}